Certificate:
    Data:
        Version: 3 (0x2)
        Serial Number: 1 (0x1)
        Signature Algorithm: sha256WithRSAEncryption
        Issuer: C=JP, ST=Tokyo, L=Bunkyo, O=UTokyo, OU=Engineering, CN=kazuyahirotsu/emailAddress=hirotsu@g.ecc.u-tokyo.ac.jp
        Validity
            Not Before: Mar 21 17:43:43 2023 GMT
            Not After : Mar 20 17:43:43 2024 GMT
        Subject: C=JP, ST=Tokyo, O=UTokyo, OU=Engineering, CN=test.hirotsu.com/emailAddress=hirotsu@g.ecc.u-tokyo.ac.jp
        Subject Public Key Info:
            Public Key Algorithm: rsaEncryption
                RSA Public-Key: (4096 bit)
                Modulus:
                    00:ce:0b:b4:95:16:69:dc:a2:a3:8a:15:98:25:8e:
                    bb:c4:2c:cf:3c:cf:28:2c:33:54:01:b5:57:d7:2e:
                    ae:c5:7a:32:64:da:fe:8d:11:bd:33:32:b9:e9:51:
                    7c:bf:a5:0f:56:a9:c2:bc:b0:3e:cb:3b:dd:cb:3e:
                    2a:fc:91:92:47:c5:a9:31:5c:b3:b1:da:d2:cd:28:
                    01:a9:c0:44:39:57:d6:ff:8b:0c:95:08:90:e8:62:
                    37:5f:da:9c:fb:82:af:cd:d4:d5:ca:ba:fa:a3:a6:
                    cd:99:7b:0a:18:fd:f9:0d:71:24:76:d0:20:c9:fb:
                    37:b0:2f:71:2f:32:dd:67:a3:ed:7c:5c:c6:58:89:
                    f0:3c:de:d9:6f:17:da:a4:f0:a1:4c:79:e0:3e:23:
                    4c:a8:72:97:66:72:bf:bd:c4:38:f0:45:72:76:ce:
                    7f:0e:f8:62:ed:2b:a6:3d:b6:af:2d:10:f8:bb:5f:
                    16:4a:5e:4c:09:1d:82:ae:30:c0:59:ea:5e:ad:0f:
                    eb:1a:81:d0:83:b7:0c:6e:d5:91:78:4c:ef:b5:3f:
                    f3:01:51:6c:35:e1:0f:92:8b:87:2e:5c:73:ce:35:
                    48:a3:fb:df:bb:17:a5:41:a6:fa:de:b5:94:68:dd:
                    82:19:a1:16:63:b9:d6:f1:83:c1:0c:1d:4d:96:57:
                    5a:f3:96:df:00:58:82:55:c4:60:33:9e:15:03:81:
                    be:3a:7b:1d:58:15:e5:a6:fe:08:c1:f5:b3:09:ba:
                    1d:d9:f7:d1:6b:2f:a0:66:f2:f0:94:28:f7:c6:48:
                    0d:2f:92:08:01:8e:8f:38:51:bc:1b:be:fe:4a:59:
                    1e:4f:b0:36:24:5b:e1:08:de:02:88:86:57:e7:39:
                    a9:f1:b1:70:71:01:4d:2d:78:4c:97:4f:0e:65:ef:
                    b0:c0:aa:90:03:0b:d2:78:22:2f:2a:d6:cc:70:ca:
                    78:fa:1a:30:67:7c:50:84:cf:7b:55:43:41:ad:96:
                    79:06:81:2a:b8:01:2c:bb:1b:d9:f9:7f:4c:b4:e8:
                    d6:33:90:3d:0e:cb:4d:c8:19:10:48:db:e5:d5:33:
                    0d:fb:ce:ea:92:f5:1c:68:f8:74:8f:48:57:be:4c:
                    fc:d5:73:ea:7a:96:19:65:5e:96:18:55:44:fe:07:
                    3d:de:6a:2a:ed:b7:48:da:15:76:46:64:b6:62:3e:
                    e1:7e:e9:25:ac:1f:a9:51:00:ac:ce:0c:4e:93:89:
                    69:42:7f:22:3e:55:73:63:f9:ca:cd:f8:92:44:fb:
                    a5:3c:e1:46:4e:3d:d5:f9:6c:b6:02:e0:e6:21:ff:
                    e3:8f:b2:f2:b4:fd:03:3f:bd:87:fd:30:df:6c:25:
                    39:26:0d
                Exponent: 65537 (0x10001)
        X509v3 extensions:
            X509v3 Basic Constraints: 
                CA:FALSE
            Netscape Comment: 
                OpenSSL Generated Certificate
            X509v3 Subject Key Identifier: 
                37:78:D0:05:03:FE:2B:E3:59:14:A9:C8:22:C3:B9:9B:02:49:1A:D7
            X509v3 Authority Key Identifier: 
                DirName:/C=JP/ST=Tokyo/L=Bunkyo/O=UTokyo/OU=Engineering/CN=kazuyahirotsu/emailAddress=hirotsu@g.ecc.u-tokyo.ac.jp
                serial:18:5A:0B:91:80:EA:DA:74:71:89:2F:30:C0:E8:43:98:E3:55:EA:CD

    Signature Algorithm: sha256WithRSAEncryption
         60:37:50:0c:8c:39:99:e2:71:16:87:83:87:ba:98:45:91:ab:
         3c:00:b7:8c:51:c0:a0:de:7f:80:2f:32:19:a6:b6:d3:6b:54:
         a5:f8:57:16:87:a7:14:93:ce:bb:56:05:2d:db:2e:05:cc:58:
         4e:19:d7:b4:5a:fa:ca:7f:55:31:fb:2b:ee:f1:52:82:93:c6:
         5e:b2:55:cf:66:c6:fd:ff:9d:e9:3a:dc:bc:a2:cc:46:71:02:
         90:a1:c5:b4:49:30:9f:02:83:86:b0:fc:08:be:a6:61:99:42:
         ed:ea:8c:e1:14:fd:e0:26:b5:d8:3b:9c:06:c3:4f:79:82:9d:
         ce:83:f1:62:db:b7:a1:de:a2:42:b9:5d:65:da:77:b0:7b:3d:
         89:17:02:fb:a1:52:df:84:02:38:6b:b8:37:39:57:d7:0e:94:
         b0:d1:90:da:cb:7a:aa:20:75:a3:a6:09:83:a6:73:62:f1:0b:
         97:05:11:f6:e8:fd:97:9d:99:5a:c6:38:30:52:eb:4a:6e:cd:
         98:50:57:d4:de:e6:18:05:bc:a5:1c:36:3e:99:bb:1b:79:a4:
         ae:a2:ed:9a:7c:c5:4b:08:7d:e0:06:23:61:68:e5:52:7c:ce:
         ab:57:a1:4b:54:91:79:96:21:89:87:ba:21:af:17:a7:99:29:
         0c:1c:26:b4:1a:28:e9:a3:76:c5:02:c4:b5:f3:46:43:e2:32:
         9c:92:5c:f7:b9:e9:a3:6b:5c:2d:e5:6e:e5:20:95:36:46:64:
         1b:33:27:6a:82:ee:81:cf:53:c8:ac:37:dc:08:e1:2c:2f:b1:
         8c:3d:a0:df:8e:b3:0a:4a:c9:9a:d7:3c:41:b4:cd:31:83:78:
         8e:e0:6c:0a:da:0d:40:4b:24:03:8a:38:b6:3e:aa:69:a6:3c:
         f2:e7:e5:2a:7c:41:9c:7c:43:b2:ad:5b:26:e2:09:9e:79:ac:
         22:ac:2a:b8:1b:9f:30:82:d5:f3:ca:77:17:43:91:79:bd:6c:
         ed:bf:79:40:5b:9b:05:35:a5:3e:bd:0e:72:c3:47:dd:b9:83:
         52:f8:be:91:6e:ff:2d:f0:f8:5c:45:02:0a:cd:17:d7:4c:d2:
         6a:08:be:56:3d:e7:27:fe:ad:1a:bd:a6:71:aa:76:06:a1:24:
         e8:0d:af:93:8f:be:6d:85:31:92:0e:bd:0f:fd:5b:c8:1d:4d:
         1a:cf:74:36:b3:8d:94:46:c5:7f:00:8a:80:1b:41:62:19:2a:
         18:45:fd:d7:95:7d:7f:0c:c8:75:e1:02:9c:fc:ed:27:b3:6e:
         0f:64:56:c3:13:88:ed:5f:57:4e:06:ce:5c:79:5f:51:99:1c:
         e6:b7:bc:dd:50:74:90:80
-----BEGIN CERTIFICATE-----
MIIGxTCCBK2gAwIBAgIBATANBgkqhkiG9w0BAQsFADCBmTELMAkGA1UEBhMCSlAx
DjAMBgNVBAgMBVRva3lvMQ8wDQYDVQQHDAZCdW5reW8xDzANBgNVBAoMBlVUb2t5
bzEUMBIGA1UECwwLRW5naW5lZXJpbmcxFjAUBgNVBAMMDWthenV5YWhpcm90c3Ux
KjAoBgkqhkiG9w0BCQEWG2hpcm90c3VAZy5lY2MudS10b2t5by5hYy5qcDAeFw0y
MzAzMjExNzQzNDNaFw0yNDAzMjAxNzQzNDNaMIGLMQswCQYDVQQGEwJKUDEOMAwG
A1UECAwFVG9reW8xDzANBgNVBAoMBlVUb2t5bzEUMBIGA1UECwwLRW5naW5lZXJp
bmcxGTAXBgNVBAMMEHRlc3QuaGlyb3RzdS5jb20xKjAoBgkqhkiG9w0BCQEWG2hp
cm90c3VAZy5lY2MudS10b2t5by5hYy5qcDCCAiIwDQYJKoZIhvcNAQEBBQADggIP
ADCCAgoCggIBAM4LtJUWadyio4oVmCWOu8QszzzPKCwzVAG1V9cursV6MmTa/o0R
vTMyuelRfL+lD1apwrywPss73cs+KvyRkkfFqTFcs7Ha0s0oAanARDlX1v+LDJUI
kOhiN1/anPuCr83U1cq6+qOmzZl7Chj9+Q1xJHbQIMn7N7AvcS8y3Wej7XxcxliJ
8Dze2W8X2qTwoUx54D4jTKhyl2Zyv73EOPBFcnbOfw74Yu0rpj22ry0Q+LtfFkpe
TAkdgq4wwFnqXq0P6xqB0IO3DG7VkXhM77U/8wFRbDXhD5KLhy5cc841SKP737sX
pUGm+t61lGjdghmhFmO51vGDwQwdTZZXWvOW3wBYglXEYDOeFQOBvjp7HVgV5ab+
CMH1swm6Hdn30WsvoGby8JQo98ZIDS+SCAGOjzhRvBu+/kpZHk+wNiRb4QjeAoiG
V+c5qfGxcHEBTS14TJdPDmXvsMCqkAML0ngiLyrWzHDKePoaMGd8UITPe1VDQa2W
eQaBKrgBLLsb2fl/TLTo1jOQPQ7LTcgZEEjb5dUzDfvO6pL1HGj4dI9IV75M/NVz
6nqWGWVelhhVRP4HPd5qKu23SNoVdkZktmI+4X7pJawfqVEArM4MTpOJaUJ/Ij5V
c2P5ys34kkT7pTzhRk491flstgLg5iH/44+y8rT9Az+9h/0w32wlOSYNAgMBAAGj
ggEiMIIBHjAJBgNVHRMEAjAAMCwGCWCGSAGG+EIBDQQfFh1PcGVuU1NMIEdlbmVy
YXRlZCBDZXJ0aWZpY2F0ZTAdBgNVHQ4EFgQUN3jQBQP+K+NZFKnIIsO5mwJJGtcw
gcMGA1UdIwSBuzCBuKGBn6SBnDCBmTELMAkGA1UEBhMCSlAxDjAMBgNVBAgMBVRv
a3lvMQ8wDQYDVQQHDAZCdW5reW8xDzANBgNVBAoMBlVUb2t5bzEUMBIGA1UECwwL
RW5naW5lZXJpbmcxFjAUBgNVBAMMDWthenV5YWhpcm90c3UxKjAoBgkqhkiG9w0B
CQEWG2hpcm90c3VAZy5lY2MudS10b2t5by5hYy5qcIIUGFoLkYDq2nRxiS8wwOhD
mONV6s0wDQYJKoZIhvcNAQELBQADggIBAGA3UAyMOZnicRaHg4e6mEWRqzwAt4xR
wKDef4AvMhmmttNrVKX4VxaHpxSTzrtWBS3bLgXMWE4Z17Ra+sp/VTH7K+7xUoKT
xl6yVc9mxv3/nek63LyizEZxApChxbRJMJ8Cg4aw/Ai+pmGZQu3qjOEU/eAmtdg7
nAbDT3mCnc6D8WLbt6HeokK5XWXad7B7PYkXAvuhUt+EAjhruDc5V9cOlLDRkNrL
eqogdaOmCYOmc2LxC5cFEfbo/ZedmVrGODBS60puzZhQV9Te5hgFvKUcNj6Zuxt5
pK6i7Zp8xUsIfeAGI2Fo5VJ8zqtXoUtUkXmWIYmHuiGvF6eZKQwcJrQaKOmjdsUC
xLXzRkPiMpySXPe56aNrXC3lbuUglTZGZBszJ2qC7oHPU8isN9wI4SwvsYw9oN+O
swpKyZrXPEG0zTGDeI7gbAraDUBLJAOKOLY+qmmmPPLn5Sp8QZx8Q7KtWybiCZ55
rCKsKrgbnzCC1fPKdxdDkXm9bO2/eUBbmwU1pT69DnLDR925g1L4vpFu/y3w+FxF
AgrNF9dM0moIvlY95yf+rRq9pnGqdgahJOgNr5OPvm2FMZIOvQ/9W8gdTRrPdDaz
jZRGxX8AioAbQWIZKhhF/deVfX8MyHXhApz87Sezbg9kVsMTiO1fV04Gzlx5X1GZ
HOa3vN1QdJCA
-----END CERTIFICATE-----
