Certificate:
    Data:
        Version: 3 (0x2)
        Serial Number: 2 (0x2)
        Signature Algorithm: sha256WithRSAEncryption
        Issuer: C=JP, ST=Tokyo, L=Bunkyo, O=UTokyo, OU=Engineering, CN=kazuyahirotsu/emailAddress=hirotsu@g.ecc.u-tokyo.ac.jp
        Validity
            Not Before: Mar 21 17:48:59 2023 GMT
            Not After : Mar 20 17:48:59 2024 GMT
        Subject: C=JP, ST=Tokyo, O=UTokyo, OU=Engineering, CN=test.hirotsu.com/emailAddress=hirotsu@g.ecc.u-tokyo.ac.jp
        Subject Public Key Info:
            Public Key Algorithm: rsaEncryption
                RSA Public-Key: (4096 bit)
                Modulus:
                    00:ce:0b:b4:95:16:69:dc:a2:a3:8a:15:98:25:8e:
                    bb:c4:2c:cf:3c:cf:28:2c:33:54:01:b5:57:d7:2e:
                    ae:c5:7a:32:64:da:fe:8d:11:bd:33:32:b9:e9:51:
                    7c:bf:a5:0f:56:a9:c2:bc:b0:3e:cb:3b:dd:cb:3e:
                    2a:fc:91:92:47:c5:a9:31:5c:b3:b1:da:d2:cd:28:
                    01:a9:c0:44:39:57:d6:ff:8b:0c:95:08:90:e8:62:
                    37:5f:da:9c:fb:82:af:cd:d4:d5:ca:ba:fa:a3:a6:
                    cd:99:7b:0a:18:fd:f9:0d:71:24:76:d0:20:c9:fb:
                    37:b0:2f:71:2f:32:dd:67:a3:ed:7c:5c:c6:58:89:
                    f0:3c:de:d9:6f:17:da:a4:f0:a1:4c:79:e0:3e:23:
                    4c:a8:72:97:66:72:bf:bd:c4:38:f0:45:72:76:ce:
                    7f:0e:f8:62:ed:2b:a6:3d:b6:af:2d:10:f8:bb:5f:
                    16:4a:5e:4c:09:1d:82:ae:30:c0:59:ea:5e:ad:0f:
                    eb:1a:81:d0:83:b7:0c:6e:d5:91:78:4c:ef:b5:3f:
                    f3:01:51:6c:35:e1:0f:92:8b:87:2e:5c:73:ce:35:
                    48:a3:fb:df:bb:17:a5:41:a6:fa:de:b5:94:68:dd:
                    82:19:a1:16:63:b9:d6:f1:83:c1:0c:1d:4d:96:57:
                    5a:f3:96:df:00:58:82:55:c4:60:33:9e:15:03:81:
                    be:3a:7b:1d:58:15:e5:a6:fe:08:c1:f5:b3:09:ba:
                    1d:d9:f7:d1:6b:2f:a0:66:f2:f0:94:28:f7:c6:48:
                    0d:2f:92:08:01:8e:8f:38:51:bc:1b:be:fe:4a:59:
                    1e:4f:b0:36:24:5b:e1:08:de:02:88:86:57:e7:39:
                    a9:f1:b1:70:71:01:4d:2d:78:4c:97:4f:0e:65:ef:
                    b0:c0:aa:90:03:0b:d2:78:22:2f:2a:d6:cc:70:ca:
                    78:fa:1a:30:67:7c:50:84:cf:7b:55:43:41:ad:96:
                    79:06:81:2a:b8:01:2c:bb:1b:d9:f9:7f:4c:b4:e8:
                    d6:33:90:3d:0e:cb:4d:c8:19:10:48:db:e5:d5:33:
                    0d:fb:ce:ea:92:f5:1c:68:f8:74:8f:48:57:be:4c:
                    fc:d5:73:ea:7a:96:19:65:5e:96:18:55:44:fe:07:
                    3d:de:6a:2a:ed:b7:48:da:15:76:46:64:b6:62:3e:
                    e1:7e:e9:25:ac:1f:a9:51:00:ac:ce:0c:4e:93:89:
                    69:42:7f:22:3e:55:73:63:f9:ca:cd:f8:92:44:fb:
                    a5:3c:e1:46:4e:3d:d5:f9:6c:b6:02:e0:e6:21:ff:
                    e3:8f:b2:f2:b4:fd:03:3f:bd:87:fd:30:df:6c:25:
                    39:26:0d
                Exponent: 65537 (0x10001)
        X509v3 extensions:
            X509v3 Subject Alternative Name: 
                DNS:test.hirotsu.com, IP Address:192.168.0.169
    Signature Algorithm: sha256WithRSAEncryption
         04:71:f0:30:45:f5:29:67:b4:3a:07:4d:b7:4f:f7:cd:37:c5:
         d2:1e:50:fd:36:45:6c:f0:83:bb:76:8f:a9:4d:0e:2a:42:78:
         05:5e:27:3b:c8:6f:a8:e8:ab:82:b5:88:19:75:af:92:e9:8a:
         8e:5b:44:65:0b:59:db:0c:56:58:24:19:fd:ce:c7:df:63:ff:
         f0:6d:1a:05:e5:55:e0:b0:c4:6b:fa:c4:1d:60:12:dd:02:6f:
         d1:0e:d5:9e:af:0a:c3:6e:8b:82:7f:a1:8a:7d:31:96:32:3c:
         e8:d0:7f:59:b9:da:cd:e2:0c:01:fa:09:6a:3d:f4:44:4c:51:
         4b:9d:6c:e5:77:25:1d:f8:8e:d8:0d:99:7c:dd:0f:9e:5a:a5:
         89:71:c4:53:c5:20:9e:9d:c1:24:c7:36:de:7d:b0:46:56:ca:
         da:c8:2d:fe:88:60:fd:2d:ae:db:81:f5:01:82:0f:53:31:fb:
         3e:f1:27:c2:36:8a:5b:e4:35:8b:90:e5:8d:d4:42:50:2d:79:
         8a:34:7a:5c:6d:79:72:03:50:32:58:5a:df:84:5f:5b:1f:ac:
         db:1b:ae:62:fb:09:10:b5:62:1d:a1:9c:fc:3f:f9:19:4e:2e:
         9d:85:5e:32:20:f3:01:76:29:2b:b7:1a:12:cb:36:14:71:15:
         4e:81:85:ff:4e:64:ad:d5:13:c4:ed:a0:eb:80:5c:64:8e:d1:
         2f:f3:de:09:18:d8:0f:38:65:6a:a2:15:59:af:ec:e0:9e:5e:
         64:5a:cb:0f:d4:b1:ab:f3:ab:70:53:06:47:38:87:fa:48:75:
         04:09:90:12:83:f4:27:20:8c:27:50:21:e2:e8:70:41:89:9c:
         5d:62:aa:f9:66:95:c3:f6:26:24:3b:d5:05:e2:fd:bb:d7:1b:
         1c:d8:e5:4b:02:97:12:96:99:9a:91:15:0f:58:ed:0b:7d:6f:
         f4:7f:1d:dc:cd:03:a6:9f:1a:f4:5d:38:3e:f3:5e:d5:4b:32:
         d7:48:ef:22:7d:7d:a6:3d:f6:d5:f0:df:79:67:23:51:54:be:
         c8:cd:b7:7f:f4:26:78:d9:6a:2a:58:23:6f:f3:f6:88:2b:29:
         3b:fc:e5:f0:f1:06:f2:ce:44:ab:b5:82:b1:e3:22:af:34:db:
         5a:94:7a:8f:7d:8e:86:47:28:3c:d0:63:af:16:41:a5:d7:b1:
         3b:8c:21:29:e5:47:15:af:e5:98:a2:d2:c5:f7:93:5d:7d:9f:
         94:be:32:9b:ca:44:c9:c1:c7:c9:c5:91:01:01:60:a0:9e:0e:
         74:ba:b0:3a:5c:82:20:d1:88:38:5c:39:62:c1:75:7c:f8:d9:
         41:8a:b6:0d:8e:be:5d:20
-----BEGIN CERTIFICATE-----
MIIFxjCCA66gAwIBAgIBAjANBgkqhkiG9w0BAQsFADCBmTELMAkGA1UEBhMCSlAx
DjAMBgNVBAgMBVRva3lvMQ8wDQYDVQQHDAZCdW5reW8xDzANBgNVBAoMBlVUb2t5
bzEUMBIGA1UECwwLRW5naW5lZXJpbmcxFjAUBgNVBAMMDWthenV5YWhpcm90c3Ux
KjAoBgkqhkiG9w0BCQEWG2hpcm90c3VAZy5lY2MudS10b2t5by5hYy5qcDAeFw0y
MzAzMjExNzQ4NTlaFw0yNDAzMjAxNzQ4NTlaMIGLMQswCQYDVQQGEwJKUDEOMAwG
A1UECAwFVG9reW8xDzANBgNVBAoMBlVUb2t5bzEUMBIGA1UECwwLRW5naW5lZXJp
bmcxGTAXBgNVBAMMEHRlc3QuaGlyb3RzdS5jb20xKjAoBgkqhkiG9w0BCQEWG2hp
cm90c3VAZy5lY2MudS10b2t5by5hYy5qcDCCAiIwDQYJKoZIhvcNAQEBBQADggIP
ADCCAgoCggIBAM4LtJUWadyio4oVmCWOu8QszzzPKCwzVAG1V9cursV6MmTa/o0R
vTMyuelRfL+lD1apwrywPss73cs+KvyRkkfFqTFcs7Ha0s0oAanARDlX1v+LDJUI
kOhiN1/anPuCr83U1cq6+qOmzZl7Chj9+Q1xJHbQIMn7N7AvcS8y3Wej7XxcxliJ
8Dze2W8X2qTwoUx54D4jTKhyl2Zyv73EOPBFcnbOfw74Yu0rpj22ry0Q+LtfFkpe
TAkdgq4wwFnqXq0P6xqB0IO3DG7VkXhM77U/8wFRbDXhD5KLhy5cc841SKP737sX
pUGm+t61lGjdghmhFmO51vGDwQwdTZZXWvOW3wBYglXEYDOeFQOBvjp7HVgV5ab+
CMH1swm6Hdn30WsvoGby8JQo98ZIDS+SCAGOjzhRvBu+/kpZHk+wNiRb4QjeAoiG
V+c5qfGxcHEBTS14TJdPDmXvsMCqkAML0ngiLyrWzHDKePoaMGd8UITPe1VDQa2W
eQaBKrgBLLsb2fl/TLTo1jOQPQ7LTcgZEEjb5dUzDfvO6pL1HGj4dI9IV75M/NVz
6nqWGWVelhhVRP4HPd5qKu23SNoVdkZktmI+4X7pJawfqVEArM4MTpOJaUJ/Ij5V
c2P5ys34kkT7pTzhRk491flstgLg5iH/44+y8rT9Az+9h/0w32wlOSYNAgMBAAGj
JTAjMCEGA1UdEQQaMBiCEHRlc3QuaGlyb3RzdS5jb22HBMCoAKkwDQYJKoZIhvcN
AQELBQADggIBAARx8DBF9SlntDoHTbdP9803xdIeUP02RWzwg7t2j6lNDipCeAVe
JzvIb6joq4K1iBl1r5Lpio5bRGULWdsMVlgkGf3Ox99j//BtGgXlVeCwxGv6xB1g
Et0Cb9EO1Z6vCsNui4J/oYp9MZYyPOjQf1m52s3iDAH6CWo99ERMUUudbOV3JR34
jtgNmXzdD55apYlxxFPFIJ6dwSTHNt59sEZWytrILf6IYP0trtuB9QGCD1Mx+z7x
J8I2ilvkNYuQ5Y3UQlAteYo0elxteXIDUDJYWt+EX1sfrNsbrmL7CRC1Yh2hnPw/
+RlOLp2FXjIg8wF2KSu3GhLLNhRxFU6Bhf9OZK3VE8TtoOuAXGSO0S/z3gkY2A84
ZWqiFVmv7OCeXmRayw/Usavzq3BTBkc4h/pIdQQJkBKD9CcgjCdQIeLocEGJnF1i
qvlmlcP2JiQ71QXi/bvXGxzY5UsClxKWmZqRFQ9Y7Qt9b/R/HdzNA6afGvRdOD7z
XtVLMtdI7yJ9faY99tXw33lnI1FUvsjNt3/0JnjZaipYI2/z9ogrKTv85fDxBvLO
RKu1grHjIq8021qUeo99joZHKDzQY68WQaXXsTuMISnlRxWv5Zii0sX3k119n5S+
MpvKRMnBx8nFkQEBYKCeDnS6sDpcgiDRiDhcOWLBdXz42UGKtg2Ovl0g
-----END CERTIFICATE-----
